; Function Attrs: mustprogress uwtable
define hidden noundef zeroext i1 @_ZNK4cvc58internal6theory9Valuation7isFixedENS0_12NodeTemplateILb0EEE(ptr noundef nonnull readonly align 8 captures(none) dereferenceable(8) %0, ptr noundef readonly captures(none) %1) local_unnamed_addr #4 align 2 personality ptr @__gxx_personality_v0 {
  %3 = alloca %"class.cvc5::internal::NodeTemplate", align 8
  %4 = load ptr, ptr %0, align 8, !tbaa !3
  %5 = getelementptr inbounds nuw i8, ptr %4, i64 16
  %6 = load ptr, ptr %5, align 8, !tbaa !9
  %7 = load ptr, ptr %1, align 8, !tbaa !142
  store ptr %7, ptr %3, align 8, !tbaa !142
  %8 = call noundef zeroext i1 @_ZNK4cvc58internal4prop10PropEngine7isFixedENS0_12NodeTemplateILb0EEE(ptr noundef nonnull align 8 dereferenceable(416) %6, ptr noundef nonnull %3)
  ret i1 %8
}